Certificate:
    Data:
        Version: 3 (0x2)
        Serial Number:
            50:99:2d:16:d7:14:ff:a1:2a:dc:ad:b9:bc:64:ec:e4
        Signature Algorithm: ecdsa-with-SHA512
        Issuer: CN=Easy-RSA CA
        Validity
            Not Before: Apr 15 23:23:23 2025 GMT
            Not After : Jul 19 23:23:23 2027 GMT
        Subject: CN=server
        Subject Public Key Info:
            Public Key Algorithm: id-ecPublicKey
                Public-Key: (384 bit)
                pub:
                    04:1b:eb:13:ab:20:8e:5f:30:55:0c:20:38:4a:f1:
                    37:55:62:11:b3:f1:98:16:1b:11:70:87:09:9c:c8:
                    df:e2:72:cc:93:ab:6a:85:7b:b2:34:a7:ec:0e:65:
                    58:7a:e6:92:8e:c6:90:c8:ca:53:4d:f9:bd:c0:65:
                    e8:da:d5:f9:d9:9e:43:47:88:9e:d2:6a:97:23:1a:
                    c9:b0:0f:e8:bd:74:28:11:89:6a:a1:c7:e4:93:88:
                    6e:2a:e2:e7:5b:30:02
                ASN1 OID: secp384r1
                NIST CURVE: P-384
        X509v3 extensions:
            X509v3 Basic Constraints: 
                CA:FALSE
            X509v3 Subject Key Identifier: 
                73:59:60:7C:83:7A:A1:84:42:3E:36:BB:12:00:FB:B0:25:E7:00:5B
            X509v3 Authority Key Identifier: 
                keyid:3C:6B:45:5D:C9:52:6F:F3:12:38:B6:AB:B7:88:B4:C6:9E:1C:56:CE
                DirName:/CN=Easy-RSA CA
                serial:05:BF:01:07:05:AD:81:A0:58:69:D1:C4:DD:E0:F1:1F:E6:A5:BC:A2
            X509v3 Extended Key Usage: 
                TLS Web Server Authentication
            X509v3 Key Usage: 
                Digital Signature, Key Encipherment
            Netscape Cert Type: 
                SSL Server
            Netscape Comment: 
                Easy-RSA (3.1.7) Generated Certificate
            X509v3 Subject Alternative Name: 
                DNS:server
    Signature Algorithm: ecdsa-with-SHA512
    Signature Value:
        30:65:02:31:00:bb:ca:b7:46:f2:10:91:65:f3:55:0c:1b:3b:
        e4:82:63:fa:c3:fd:a2:b0:98:4e:a3:df:0d:0d:82:f5:4f:8c:
        bd:be:85:5b:2f:10:49:b0:ee:bc:31:93:eb:71:de:77:0c:02:
        30:52:c9:f7:a4:1e:9c:a8:92:5d:ab:2c:33:a8:f0:6b:bf:b6:
        f0:a6:6f:25:21:f5:d7:de:e1:23:77:13:27:3a:88:49:bb:95:
        a2:18:9d:f2:9a:73:d1:2a:7a:36:d3:d0:0c
-----BEGIN CERTIFICATE-----
MIICYjCCAeigAwIBAgIQUJktFtcU/6Eq3K25vGTs5DAKBggqhkjOPQQDBDAWMRQw
EgYDVQQDDAtFYXN5LVJTQSBDQTAeFw0yNTA0MTUyMzIzMjNaFw0yNzA3MTkyMzIz
MjNaMBExDzANBgNVBAMMBnNlcnZlcjB2MBAGByqGSM49AgEGBSuBBAAiA2IABBvr
E6sgjl8wVQwgOErxN1ViEbPxmBYbEXCHCZzI3+JyzJOraoV7sjSn7A5lWHrmko7G
kMjKU035vcBl6NrV+dmeQ0eIntJqlyMaybAP6L10KBGJaqHH5JOIbiri51swAqOB
/zCB/DAJBgNVHRMEAjAAMB0GA1UdDgQWBBRzWWB8g3qhhEI+NrsSAPuwJecAWzBR
BgNVHSMESjBIgBQ8a0VdyVJv8xI4tqu3iLTGnhxWzqEapBgwFjEUMBIGA1UEAwwL
RWFzeS1SU0EgQ0GCFAW/AQcFrYGgWGnRxN3g8R/mpbyiMBMGA1UdJQQMMAoGCCsG
AQUFBwMBMAsGA1UdDwQEAwIFoDARBglghkgBhvhCAQEEBAMCBkAwNQYJYIZIAYb4
QgENBCgWJkVhc3ktUlNBICgzLjEuNykgR2VuZXJhdGVkIENlcnRpZmljYXRlMBEG
A1UdEQQKMAiCBnNlcnZlcjAKBggqhkjOPQQDBANoADBlAjEAu8q3RvIQkWXzVQwb
O+SCY/rD/aKwmE6j3w0NgvVPjL2+hVsvEEmw7rwxk+tx3ncMAjBSyfekHpyokl2r
LDOo8Gu/tvCmbyUh9dfe4SN3Eyc6iEm7laIYnfKac9EqejbT0Aw=
-----END CERTIFICATE-----
